; Function Attrs: nounwind uwtable
define i32 @Abc_BufCountNonCritical(ptr noundef readonly captures(none) %0, ptr noundef %1) local_unnamed_addr #2 {
  %3 = getelementptr inbounds nuw i8, ptr %0, i64 104
  %4 = load ptr, ptr %3, align 8, !tbaa !130
  %5 = getelementptr inbounds nuw i8, ptr %4, i64 4
  store i32 0, ptr %5, align 4, !tbaa !50
  %6 = getelementptr i8, ptr %1, i64 44
  %.val1219 = load i32, ptr %6, align 4, !tbaa !60
  %7 = icmp sgt i32 %.val1219, 0
  br i1 %7, label %.lr.ph, label %.critedge

.lr.ph:                                           ; preds = %2
  %8 = getelementptr i8, ptr %1, i64 48
  %9 = getelementptr inbounds nuw i8, ptr %0, i64 80
  %10 = getelementptr i8, ptr %0, i64 40
  %11 = getelementptr i8, ptr %1, i64 16
  %12 = getelementptr i8, ptr %0, i64 48
  %13 = getelementptr i8, ptr %0, i64 24
  %14 = getelementptr i8, ptr %0, i64 32
  br label %15

15:                                               ; preds = %.lr.ph, %80
  %indvars.iv = phi i64 [ 0, %.lr.ph ], [ %indvars.iv.next, %80 ]
  %.val13 = load ptr, ptr %1, align 8, !tbaa !31
  %.val14 = load ptr, ptr %8, align 8, !tbaa !62
  %16 = getelementptr i8, ptr %.val13, i64 32
  %.val13.val = load ptr, ptr %16, align 8, !tbaa !3
  %17 = getelementptr i8, ptr %.val13.val, i64 8
  %.val13.val.val = load ptr, ptr %17, align 8, !tbaa !26
  %18 = getelementptr inbounds nuw i32, ptr %.val14, i64 %indvars.iv
  %19 = load i32, ptr %18, align 4, !tbaa !33
  %20 = sext i32 %19 to i64
  %21 = getelementptr inbounds ptr, ptr %.val13.val.val, i64 %20
  %22 = load ptr, ptr %21, align 8, !tbaa !27
  %23 = load i32, ptr %9, align 8, !tbaa !86
  %.val.i = load ptr, ptr %10, align 8, !tbaa !81
  %.val9.i = load i32, ptr %11, align 8, !tbaa !34
  %24 = getelementptr i8, ptr %.val.i, i64 8
  %.val.val.i = load ptr, ptr %24, align 8, !tbaa !45
  %25 = sext i32 %.val9.i to i64
  %26 = getelementptr inbounds i32, ptr %.val.val.i, i64 %25
  %27 = load i32, ptr %26, align 4, !tbaa !33
  %.val13.i = load ptr, ptr %12, align 8, !tbaa !84
  %28 = getelementptr i8, ptr %22, i64 16
  %.val14.i = load i32, ptr %28, align 8, !tbaa !34
  %29 = getelementptr i8, ptr %.val13.i, i64 8
  %.val13.val.i = load ptr, ptr %29, align 8, !tbaa !45
  %30 = sext i32 %.val14.i to i64
  %31 = getelementptr inbounds i32, ptr %.val13.val.i, i64 %30
  %32 = load i32, ptr %31, align 4, !tbaa !33
  %33 = tail call i32 @Abc_NodeFindFanin(ptr noundef %22, ptr noundef nonnull %1) #17
  %.val10.i = load ptr, ptr %13, align 8, !tbaa !77
  %.val11.i = load ptr, ptr %14, align 8, !tbaa !82
  %.val12.i = load i32, ptr %28, align 8, !tbaa !34
  %34 = getelementptr i8, ptr %.val10.i, i64 8
  %.val10.val.i = load ptr, ptr %34, align 8, !tbaa !45
  %35 = getelementptr i8, ptr %.val11.i, i64 8
  %.val11.val.i = load ptr, ptr %35, align 8, !tbaa !45
  %36 = sext i32 %.val12.i to i64
  %37 = getelementptr inbounds i32, ptr %.val10.val.i, i64 %36
  %38 = load i32, ptr %37, align 4, !tbaa !33
  %39 = add nsw i32 %38, %33
  %40 = sext i32 %39 to i64
  %41 = getelementptr inbounds i32, ptr %.val11.val.i, i64 %40
  %42 = load i32, ptr %41, align 4, !tbaa !33
  %43 = add i32 %27, %32
  %44 = add i32 %43, %42
  %45 = sub i32 %23, %44
  %46 = icmp sgt i32 %45, 3500
  br i1 %46, label %47, label %80

47:                                               ; preds = %15
  %48 = load ptr, ptr %3, align 8, !tbaa !130
  %49 = getelementptr inbounds nuw i8, ptr %48, i64 4
  %50 = load i32, ptr %49, align 4, !tbaa !50
  %51 = load i32, ptr %48, align 8, !tbaa !51
  %52 = icmp eq i32 %50, %51
  br i1 %52, label %53, label %.Vec_IntGrow.exit10_crit_edge.i

.Vec_IntGrow.exit10_crit_edge.i:                  ; preds = %47
  %.phi.trans.insert.i = getelementptr inbounds nuw i8, ptr %48, i64 8
  %.pre.i = load ptr, ptr %.phi.trans.insert.i, align 8, !tbaa !45
  br label %Vec_IntPush.exit

53:                                               ; preds = %47
  %54 = icmp slt i32 %50, 16
  br i1 %54, label %55, label %63

55:                                               ; preds = %53
  %56 = getelementptr inbounds nuw i8, ptr %48, i64 8
  %57 = load ptr, ptr %56, align 8, !tbaa !45
  %.not9.i.i = icmp eq ptr %57, null
  br i1 %.not9.i.i, label %60, label %58

58:                                               ; preds = %55
  %59 = tail call dereferenceable_or_null(64) ptr @realloc(ptr noundef nonnull %57, i64 noundef 64) #19
  br label %Vec_IntGrow.exit.i

60:                                               ; preds = %55
  %61 = tail call noalias dereferenceable_or_null(64) ptr @malloc(i64 noundef 64) #18
  br label %Vec_IntGrow.exit.i

Vec_IntGrow.exit.i:                               ; preds = %60, %58
  %62 = phi ptr [ %59, %58 ], [ %61, %60 ]
  store ptr %62, ptr %56, align 8, !tbaa !45
  store i32 16, ptr %48, align 8, !tbaa !51
  br label %Vec_IntPush.exit

63:                                               ; preds = %53
  %64 = shl nuw nsw i32 %50, 1
  %65 = getelementptr inbounds nuw i8, ptr %48, i64 8
  %66 = load ptr, ptr %65, align 8, !tbaa !45
  %.not9.i9.i = icmp eq ptr %66, null
  %67 = zext nneg i32 %64 to i64
  %68 = shl nuw nsw i64 %67, 2
  br i1 %.not9.i9.i, label %71, label %69

69:                                               ; preds = %63
  %70 = tail call ptr @realloc(ptr noundef nonnull %66, i64 noundef %68) #19
  br label %73

71:                                               ; preds = %63
  %72 = tail call noalias ptr @malloc(i64 noundef %68) #18
  br label %73

73:                                               ; preds = %71, %69
  %74 = phi ptr [ %70, %69 ], [ %72, %71 ]
  store ptr %74, ptr %65, align 8, !tbaa !45
  store i32 %64, ptr %48, align 8, !tbaa !51
  br label %Vec_IntPush.exit

Vec_IntPush.exit:                                 ; preds = %.Vec_IntGrow.exit10_crit_edge.i, %Vec_IntGrow.exit.i, %73
  %75 = phi ptr [ %.pre.i, %.Vec_IntGrow.exit10_crit_edge.i ], [ %74, %73 ], [ %62, %Vec_IntGrow.exit.i ]
  %76 = load i32, ptr %49, align 4, !tbaa !50
  %77 = add nsw i32 %76, 1
  store i32 %77, ptr %49, align 4, !tbaa !50
  %78 = sext i32 %76 to i64
  %79 = getelementptr inbounds i32, ptr %75, i64 %78
  store i32 %.val12.i, ptr %79, align 4, !tbaa !33
  br label %80

80:                                               ; preds = %15, %Vec_IntPush.exit
  %indvars.iv.next = add nuw nsw i64 %indvars.iv, 1
  %.val12 = load i32, ptr %6, align 4, !tbaa !60
  %81 = sext i32 %.val12 to i64
  %82 = icmp slt i64 %indvars.iv.next, %81
  br i1 %82, label %15, label %.critedge.loopexit, !llvm.loop !142

.critedge.loopexit:                               ; preds = %80
  %.pre = load ptr, ptr %3, align 8, !tbaa !130
  %.phi.trans.insert = getelementptr i8, ptr %.pre, i64 4
  %.val11.pre = load i32, ptr %.phi.trans.insert, align 4, !tbaa !50
  br label %.critedge

.critedge:                                        ; preds = %.critedge.loopexit, %2
  %.val11 = phi i32 [ %.val11.pre, %.critedge.loopexit ], [ 0, %2 ]
  ret i32 %.val11
}